; Function Attrs: mustprogress uwtable
define void @_ZNK32pxrInternal_v0_24__pxrReserved__7UsdPrim18CreateRelationshipERKSt6vectorINSt7__cxx1112basic_stringIcSt11char_traitsIcESaIcEEESaIS7_EEb(ptr dead_on_unwind noalias writable sret(%"class.pxrInternal_v0_24__pxrReserved__::UsdRelationship") align 8 %0, ptr noundef nonnull align 8 dereferenceable(32) %1, ptr noundef nonnull align 8 dereferenceable(24) %2, i1 noundef zeroext %3) local_unnamed_addr #0 align 2 personality ptr @__gxx_personality_v0 {
  %5 = alloca %"class.pxrInternal_v0_24__pxrReserved__::TfToken", align 8
  %6 = alloca %"class.std::__cxx11::basic_string", align 8
  call void @_ZN32pxrInternal_v0_24__pxrReserved__7SdfPath14JoinIdentifierERKSt6vectorINSt7__cxx1112basic_stringIcSt11char_traitsIcESaIcEEESaIS7_EE(ptr dead_on_unwind nonnull writable sret(%"class.std::__cxx11::basic_string") align 8 %6, ptr noundef nonnull align 8 dereferenceable(24) %2)
  invoke void @_ZN32pxrInternal_v0_24__pxrReserved__7TfTokenC1ERKNSt7__cxx1112basic_stringIcSt11char_traitsIcESaIcEEE(ptr noundef nonnull align 8 dereferenceable(8) %5, ptr noundef nonnull align 8 dereferenceable(32) %6)
          to label %7 unwind label %20

7:                                                ; preds = %4
  %8 = getelementptr inbounds nuw i8, ptr %1, i64 8
  %9 = getelementptr inbounds nuw i8, ptr %1, i64 16
  invoke void @_ZN32pxrInternal_v0_24__pxrReserved__9UsdObjectC2ENS_10UsdObjTypeERKNS_18Usd_PrimDataHandleERKNS_7SdfPathERKNS_7TfTokenE(ptr noundef nonnull align 8 dereferenceable(32) %0, i32 noundef 4, ptr noundef nonnull align 8 dereferenceable(8) %8, ptr noundef nonnull align 4 dereferenceable(8) %9, ptr noundef nonnull align 8 dereferenceable(8) %5)
          to label %.noexc unwind label %22

.noexc:                                           ; preds = %7
  %10 = invoke noundef zeroext i1 @_ZNK32pxrInternal_v0_24__pxrReserved__15UsdRelationship7_CreateEb(ptr noundef nonnull align 8 dereferenceable(32) %0, i1 noundef zeroext %3)
          to label %_ZNK32pxrInternal_v0_24__pxrReserved__7UsdPrim18CreateRelationshipERKNS_7TfTokenEb.exit unwind label %11

11:                                               ; preds = %.noexc
  %12 = landingpad { ptr, i32 }
          cleanup
  call void @_ZN32pxrInternal_v0_24__pxrReserved__15UsdRelationshipD2Ev(ptr noundef nonnull align 8 dereferenceable(32) %0) #18
  br label %.body

_ZNK32pxrInternal_v0_24__pxrReserved__7UsdPrim18CreateRelationshipERKNS_7TfTokenEb.exit: ; preds = %.noexc
  %13 = load ptr, ptr %5, align 8
  %14 = ptrtoint ptr %13 to i64
  %15 = and i64 %14, 7
  %.not.i.i = icmp eq i64 %15, 0
  br i1 %.not.i.i, label %_ZN32pxrInternal_v0_24__pxrReserved__7TfTokenD2Ev.exit, label %16

16:                                               ; preds = %_ZNK32pxrInternal_v0_24__pxrReserved__7UsdPrim18CreateRelationshipERKNS_7TfTokenEb.exit
  %17 = and i64 %14, -8
  %18 = inttoptr i64 %17 to ptr
  %19 = atomicrmw sub ptr %18, i32 2 release, align 4
  br label %_ZN32pxrInternal_v0_24__pxrReserved__7TfTokenD2Ev.exit

_ZN32pxrInternal_v0_24__pxrReserved__7TfTokenD2Ev.exit: ; preds = %_ZNK32pxrInternal_v0_24__pxrReserved__7UsdPrim18CreateRelationshipERKNS_7TfTokenEb.exit, %16
  call void @_ZNSt7__cxx1112basic_stringIcSt11char_traitsIcESaIcEED1Ev(ptr noundef nonnull align 8 dereferenceable(32) %6) #18
  ret void

20:                                               ; preds = %4
  %21 = landingpad { ptr, i32 }
          cleanup
  br label %_ZN32pxrInternal_v0_24__pxrReserved__7TfTokenD2Ev.exit7

22:                                               ; preds = %7
  %23 = landingpad { ptr, i32 }
          cleanup
  br label %.body

.body:                                            ; preds = %11, %22
  %eh.lpad-body = phi { ptr, i32 } [ %23, %22 ], [ %12, %11 ]
  %24 = load ptr, ptr %5, align 8
  %25 = ptrtoint ptr %24 to i64
  %26 = and i64 %25, 7
  %.not.i.i6 = icmp eq i64 %26, 0
  br i1 %.not.i.i6, label %_ZN32pxrInternal_v0_24__pxrReserved__7TfTokenD2Ev.exit7, label %27

27:                                               ; preds = %.body
  %28 = and i64 %25, -8
  %29 = inttoptr i64 %28 to ptr
  %30 = atomicrmw sub ptr %29, i32 2 release, align 4
  br label %_ZN32pxrInternal_v0_24__pxrReserved__7TfTokenD2Ev.exit7

_ZN32pxrInternal_v0_24__pxrReserved__7TfTokenD2Ev.exit7: ; preds = %27, %.body, %20
  %.pn = phi { ptr, i32 } [ %21, %20 ], [ %eh.lpad-body, %.body ], [ %eh.lpad-body, %27 ]
  call void @_ZNSt7__cxx1112basic_stringIcSt11char_traitsIcESaIcEED1Ev(ptr noundef nonnull align 8 dereferenceable(32) %6) #18
  resume { ptr, i32 } %.pn
}